; Function Attrs: inlinehint mustprogress noreturn optsize uwtable
define internal noalias noundef nonnull ptr @"_ZZN8nanobind6detail11func_createILb0ELb1EZL32nanobind_init_test_exception_extRNS_7module_EE4$_13vJETpTnmJEJNS_5scopeENS_4nameEEEEP7_objectOT1_PFT2_DpT3_ESt16integer_sequenceImJXspT4_EEEDpRKT5_ENUlPvPS8_PhNS_9rv_policyEPNS0_12cleanup_listEE_8__invokeESM_SN_SO_SP_SR_"(ptr readnone captures(none) %0, ptr readnone captures(none) %1, ptr readnone captures(none) %2, i32 %3, ptr readnone captures(none) %4) #10 align 2 personality ptr @__gxx_personality_v0 {
  %6 = tail call ptr @__cxa_allocate_exception(i64 24) #16
  invoke void @_ZN8nanobind12import_errorEPKc(ptr dead_on_unwind writable sret(%"class.nanobind::builtin_exception") align 8 %6, ptr noundef nonnull @.str.33) #15
          to label %7 unwind label %8

7:                                                ; preds = %5
  tail call void @__cxa_throw(ptr %6, ptr nonnull @_ZTIN8nanobind17builtin_exceptionE, ptr nonnull @_ZN8nanobind17builtin_exceptionD1Ev) #19
  unreachable

8:                                                ; preds = %5
  %9 = landingpad { ptr, i32 }
          cleanup
  tail call void @__cxa_free_exception(ptr %6) #16
  resume { ptr, i32 } %9
}